; Function Attrs: mustprogress nounwind uwtable
define hidden noundef ptr @_ZNK12MethodFamily23generate_method_messageEP6SymbolP6Method(ptr nocapture nonnull readnone align 8 %0, ptr noundef %1, ptr nocapture noundef readonly %2) local_unnamed_addr #0 align 2 {
  %4 = alloca %class.stringStream, align 8
  call void @_ZN12stringStreamC1Em(ptr noundef nonnull align 8 dereferenceable(129) %4, i64 noundef 0) #11
  call void (ptr, ptr, ...) @_ZN12outputStream5printEPKcz(ptr noundef nonnull align 8 dereferenceable(56) %4, ptr noundef nonnull @.str.4) #11
  %5 = getelementptr inbounds i8, ptr %2, i64 8
  %6 = load ptr, ptr %5, align 8
  %7 = getelementptr inbounds i8, ptr %6, i64 8
  %8 = load ptr, ptr %7, align 8
  %9 = getelementptr inbounds i8, ptr %6, i64 36
  %10 = load i16, ptr %9, align 4
  %11 = getelementptr inbounds i8, ptr %8, i64 72
  %12 = zext i16 %10 to i64
  %13 = getelementptr inbounds i64, ptr %11, i64 %12
  %14 = load ptr, ptr %13, align 8
  %15 = getelementptr inbounds i8, ptr %6, i64 38
  %16 = load i16, ptr %15, align 2
  %17 = zext i16 %16 to i64
  %18 = getelementptr inbounds i64, ptr %11, i64 %17
  %19 = load ptr, ptr %18, align 8
  %20 = getelementptr inbounds i8, ptr %1, i64 6
  %21 = getelementptr inbounds i8, ptr %1, i64 4
  %22 = load i16, ptr %21, align 4
  %23 = zext i16 %22 to i64
  call void @_ZN12stringStream5writeEPKcm(ptr noundef nonnull align 8 dereferenceable(129) %4, ptr noundef nonnull %20, i64 noundef %23) #11
  call void (ptr, ptr, ...) @_ZN12outputStream5printEPKcz(ptr noundef nonnull align 8 dereferenceable(56) %4, ptr noundef nonnull @.str.5) #11
  %24 = getelementptr inbounds i8, ptr %14, i64 6
  %25 = getelementptr inbounds i8, ptr %14, i64 4
  %26 = load i16, ptr %25, align 4
  %27 = zext i16 %26 to i64
  call void @_ZN12stringStream5writeEPKcm(ptr noundef nonnull align 8 dereferenceable(129) %4, ptr noundef nonnull %24, i64 noundef %27) #11
  %28 = getelementptr inbounds i8, ptr %19, i64 6
  %29 = getelementptr inbounds i8, ptr %19, i64 4
  %30 = load i16, ptr %29, align 4
  %31 = zext i16 %30 to i64
  call void @_ZN12stringStream5writeEPKcm(ptr noundef nonnull align 8 dereferenceable(129) %4, ptr noundef nonnull %28, i64 noundef %31) #11
  call void (ptr, ptr, ...) @_ZN12outputStream5printEPKcz(ptr noundef nonnull align 8 dereferenceable(56) %4, ptr noundef nonnull @.str.6) #11
  %32 = getelementptr inbounds i8, ptr %4, i64 56
  %33 = load ptr, ptr %32, align 8
  %34 = getelementptr inbounds i8, ptr %4, i64 64
  %35 = load i64, ptr %34, align 8
  %36 = trunc i64 %35 to i32
  %37 = call noundef ptr @_ZN11SymbolTable10new_symbolEPKci(ptr noundef %33, i32 noundef %36) #11
  call void @_ZN12stringStreamD1Ev(ptr noundef nonnull align 8 dereferenceable(129) %4) #11
  ret ptr %37
}